; Function Attrs: mustprogress uwtable
define hidden void @_ZN4cvc58internal6theory7strings11EagerSolver13eqNotifyMergeEPNS2_7EqcInfoENS0_12NodeTemplateILb0EEES5_S7_(ptr noundef nonnull align 8 dereferenceable(80) %this, ptr noundef %e1, ptr nocapture noundef readonly %t1, ptr nocapture noundef readonly %e2, ptr nocapture noundef readonly %t2) local_unnamed_addr #3 align 2 personality ptr @__gxx_personality_v0 {
entry:
  %agg.tmp = alloca %"class.cvc5::internal::NodeTemplate", align 8
  %agg.tmp2 = alloca %"class.cvc5::internal::NodeTemplate", align 8
  %0 = load ptr, ptr %t1, align 8
  store ptr %0, ptr %agg.tmp, align 8
  %bf.load.i.i = load i64, ptr %0, align 8
  %bf.lshr.i.i = lshr i64 %bf.load.i.i, 40
  %1 = trunc i64 %bf.lshr.i.i to i32
  %bf.cast.i.i = and i32 %1, 1048575
  %cmp.i.i = icmp ult i32 %bf.cast.i.i, 1048574
  br i1 %cmp.i.i, label %if.then.i.i, label %if.else.i.i

if.then.i.i:                                      ; preds = %entry
  %bf.value.i.i = add i64 %bf.load.i.i, 1099511627776
  %bf.shl.i.i = and i64 %bf.value.i.i, 1152920405095219200
  %bf.clear7.i.i = and i64 %bf.load.i.i, -1152920405095219201
  %bf.set.i.i = or disjoint i64 %bf.shl.i.i, %bf.clear7.i.i
  store i64 %bf.set.i.i, ptr %0, align 8
  br label %_ZN4cvc58internal12NodeTemplateILb1EEC2ERKNS1_ILb0EEE.exit

if.else.i.i:                                      ; preds = %entry
  %cmp12.i.i = icmp eq i32 %bf.cast.i.i, 1048574
  br i1 %cmp12.i.i, label %if.then13.i.i, label %_ZN4cvc58internal12NodeTemplateILb1EEC2ERKNS1_ILb0EEE.exit

if.then13.i.i:                                    ; preds = %if.else.i.i
  %bf.set23.i.i = or i64 %bf.load.i.i, 1152920405095219200
  store i64 %bf.set23.i.i, ptr %0, align 8
  tail call void @_ZN4cvc58internal4expr9NodeValue20markRefCountMaxedOutEv(ptr noundef nonnull align 8 dereferenceable(16) %0)
  br label %_ZN4cvc58internal12NodeTemplateILb1EEC2ERKNS1_ILb0EEE.exit

_ZN4cvc58internal12NodeTemplateILb1EEC2ERKNS1_ILb0EEE.exit: ; preds = %if.then.i.i, %if.else.i.i, %if.then13.i.i
  %2 = load ptr, ptr %t2, align 8
  store ptr %2, ptr %agg.tmp2, align 8
  %bf.load.i.i2 = load i64, ptr %2, align 8
  %bf.lshr.i.i3 = lshr i64 %bf.load.i.i2, 40
  %3 = trunc i64 %bf.lshr.i.i3 to i32
  %bf.cast.i.i4 = and i32 %3, 1048575
  %cmp.i.i5 = icmp ult i32 %bf.cast.i.i4, 1048574
  br i1 %cmp.i.i5, label %if.then.i.i10, label %if.else.i.i6

if.then.i.i10:                                    ; preds = %_ZN4cvc58internal12NodeTemplateILb1EEC2ERKNS1_ILb0EEE.exit
  %bf.value.i.i11 = add i64 %bf.load.i.i2, 1099511627776
  %bf.shl.i.i12 = and i64 %bf.value.i.i11, 1152920405095219200
  %bf.clear7.i.i13 = and i64 %bf.load.i.i2, -1152920405095219201
  %bf.set.i.i14 = or disjoint i64 %bf.shl.i.i12, %bf.clear7.i.i13
  store i64 %bf.set.i.i14, ptr %2, align 8
  br label %invoke.cont

if.else.i.i6:                                     ; preds = %_ZN4cvc58internal12NodeTemplateILb1EEC2ERKNS1_ILb0EEE.exit
  %cmp12.i.i7 = icmp eq i32 %bf.cast.i.i4, 1048574
  br i1 %cmp12.i.i7, label %if.then13.i.i8, label %invoke.cont

if.then13.i.i8:                                   ; preds = %if.else.i.i6
  %bf.set23.i.i9 = or i64 %bf.load.i.i2, 1152920405095219200
  store i64 %bf.set23.i.i9, ptr %2, align 8
  invoke void @_ZN4cvc58internal4expr9NodeValue20markRefCountMaxedOutEv(ptr noundef nonnull align 8 dereferenceable(16) %2)
          to label %invoke.cont unwind label %lpad

invoke.cont:                                      ; preds = %if.else.i.i6, %if.then.i.i10, %if.then13.i.i8
  %call = invoke noundef zeroext i1 @_ZN4cvc58internal6theory7strings11EagerSolver21checkForMergeConflictENS0_12NodeTemplateILb1EEES5_PNS2_7EqcInfoES7_(ptr noundef nonnull align 8 dereferenceable(80) %this, ptr noundef nonnull %agg.tmp, ptr nonnull poison, ptr noundef %e1, ptr noundef %e2)
          to label %invoke.cont4 unwind label %lpad3

invoke.cont4:                                     ; preds = %invoke.cont
  %bf.load.i.i16 = load i64, ptr %2, align 8
  %4 = and i64 %bf.load.i.i16, 1152920405095219200
  %cmp.not.i.i = icmp eq i64 %4, 1152920405095219200
  br i1 %cmp.not.i.i, label %_ZN4cvc58internal12NodeTemplateILb1EED2Ev.exit, label %if.then.i.i17

if.then.i.i17:                                    ; preds = %invoke.cont4
  %bf.value.i.i18 = add i64 %bf.load.i.i16, 1152920405095219200
  %bf.shl.i.i19 = and i64 %bf.value.i.i18, 1152920405095219200
  %bf.clear7.i.i20 = and i64 %bf.load.i.i16, -1152920405095219201
  %bf.set.i.i21 = or disjoint i64 %bf.shl.i.i19, %bf.clear7.i.i20
  store i64 %bf.set.i.i21, ptr %2, align 8
  %cmp12.i.i22 = icmp eq i64 %bf.shl.i.i19, 0
  br i1 %cmp12.i.i22, label %if.then13.i.i23, label %_ZN4cvc58internal12NodeTemplateILb1EED2Ev.exit

if.then13.i.i23:                                  ; preds = %if.then.i.i17
  invoke void @_ZN4cvc58internal4expr9NodeValue15markForDeletionEv(ptr noundef nonnull align 8 dereferenceable(16) %2)
          to label %_ZN4cvc58internal12NodeTemplateILb1EED2Ev.exit unwind label %terminate.lpad.i

terminate.lpad.i:                                 ; preds = %if.then13.i.i23
  %5 = landingpad { ptr, i32 }
          catch ptr null
  %6 = extractvalue { ptr, i32 } %5, 0
  call void @__clang_call_terminate(ptr %6) #13
  unreachable

_ZN4cvc58internal12NodeTemplateILb1EED2Ev.exit:   ; preds = %invoke.cont4, %if.then.i.i17, %if.then13.i.i23
  %7 = load ptr, ptr %agg.tmp, align 8
  %bf.load.i.i24 = load i64, ptr %7, align 8
  %8 = and i64 %bf.load.i.i24, 1152920405095219200
  %cmp.not.i.i25 = icmp eq i64 %8, 1152920405095219200
  br i1 %cmp.not.i.i25, label %_ZN4cvc58internal12NodeTemplateILb1EED2Ev.exit34, label %if.then.i.i26

if.then.i.i26:                                    ; preds = %_ZN4cvc58internal12NodeTemplateILb1EED2Ev.exit
  %bf.value.i.i27 = add i64 %bf.load.i.i24, 1152920405095219200
  %bf.shl.i.i28 = and i64 %bf.value.i.i27, 1152920405095219200
  %bf.clear7.i.i29 = and i64 %bf.load.i.i24, -1152920405095219201
  %bf.set.i.i30 = or disjoint i64 %bf.shl.i.i28, %bf.clear7.i.i29
  store i64 %bf.set.i.i30, ptr %7, align 8
  %cmp12.i.i31 = icmp eq i64 %bf.shl.i.i28, 0
  br i1 %cmp12.i.i31, label %if.then13.i.i32, label %_ZN4cvc58internal12NodeTemplateILb1EED2Ev.exit34

if.then13.i.i32:                                  ; preds = %if.then.i.i26
  invoke void @_ZN4cvc58internal4expr9NodeValue15markForDeletionEv(ptr noundef nonnull align 8 dereferenceable(16) %7)
          to label %_ZN4cvc58internal12NodeTemplateILb1EED2Ev.exit34 unwind label %terminate.lpad.i33

terminate.lpad.i33:                               ; preds = %if.then13.i.i32
  %9 = landingpad { ptr, i32 }
          catch ptr null
  %10 = extractvalue { ptr, i32 } %9, 0
  call void @__clang_call_terminate(ptr %10) #13
  unreachable

_ZN4cvc58internal12NodeTemplateILb1EED2Ev.exit34: ; preds = %_ZN4cvc58internal12NodeTemplateILb1EED2Ev.exit, %if.then.i.i26, %if.then13.i.i32
  ret void

lpad:                                             ; preds = %if.then13.i.i8
  %11 = landingpad { ptr, i32 }
          cleanup
  br label %ehcleanup

lpad3:                                            ; preds = %invoke.cont
  %12 = landingpad { ptr, i32 }
          cleanup
  call void @_ZN4cvc58internal12NodeTemplateILb1EED2Ev(ptr noundef nonnull align 8 dereferenceable(8) %agg.tmp2) #12
  br label %ehcleanup

ehcleanup:                                        ; preds = %lpad3, %lpad
  %.pn = phi { ptr, i32 } [ %12, %lpad3 ], [ %11, %lpad ]
  call void @_ZN4cvc58internal12NodeTemplateILb1EED2Ev(ptr noundef nonnull align 8 dereferenceable(8) %agg.tmp) #12
  resume { ptr, i32 } %.pn
}